; Function Attrs: mustprogress uwtable
define noundef ptr @_ZN8facebook5velox4exec25SimpleExpressionEvaluator13ensureExecCtxEv(ptr noundef nonnull align 8 dereferenceable(32) %this) local_unnamed_addr #3 align 2 personality ptr @__gxx_personality_v0 {
entry:
  %ref.tmp = alloca %"class.std::unique_ptr.276", align 8
  %execCtx_ = getelementptr inbounds i8, ptr %this, i64 24
  %0 = load ptr, ptr %execCtx_, align 8
  %cmp.i.not = icmp eq ptr %0, null
  br i1 %cmp.i.not, label %if.then, label %if.end

if.then:                                          ; preds = %entry
  %pool_ = getelementptr inbounds i8, ptr %this, i64 16
  %queryCtx_ = getelementptr inbounds i8, ptr %this, i64 8
  call void @_ZSt11make_uniqueIN8facebook5velox4core7ExecCtxEJRKPNS1_6memory10MemoryPoolERKPNS2_8QueryCtxEEENSt8__detail9_MakeUniqIT_E15__single_objectEDpOT0_(ptr nonnull sret(%"class.std::unique_ptr.276") align 8 %ref.tmp, ptr noundef nonnull align 8 dereferenceable(8) %pool_, ptr noundef nonnull align 8 dereferenceable(8) %queryCtx_)
  %1 = load ptr, ptr %ref.tmp, align 8
  store ptr null, ptr %ref.tmp, align 8
  %2 = load ptr, ptr %execCtx_, align 8
  store ptr %1, ptr %execCtx_, align 8
  %tobool.not.i.i.i.i = icmp eq ptr %2, null
  br i1 %tobool.not.i.i.i.i, label %_ZNSt10unique_ptrIN8facebook5velox4core7ExecCtxESt14default_deleteIS3_EED2Ev.exit, label %_ZNSt10unique_ptrIN8facebook5velox4core7ExecCtxESt14default_deleteIS3_EEaSEOS6_.exit

_ZNSt10unique_ptrIN8facebook5velox4core7ExecCtxESt14default_deleteIS3_EEaSEOS6_.exit: ; preds = %if.then
  call void @_ZN8facebook5velox4core7ExecCtxD2Ev(ptr noundef nonnull align 8 dereferenceable(80) %2) #31
  call void @_ZdlPv(ptr noundef nonnull %2) #32
  %.pr = load ptr, ptr %ref.tmp, align 8
  %cmp.not.i = icmp eq ptr %.pr, null
  br i1 %cmp.not.i, label %_ZNSt10unique_ptrIN8facebook5velox4core7ExecCtxESt14default_deleteIS3_EED2Ev.exit, label %_ZNKSt14default_deleteIN8facebook5velox4core7ExecCtxEEclEPS3_.exit.i

_ZNKSt14default_deleteIN8facebook5velox4core7ExecCtxEEclEPS3_.exit.i: ; preds = %_ZNSt10unique_ptrIN8facebook5velox4core7ExecCtxESt14default_deleteIS3_EEaSEOS6_.exit
  call void @_ZN8facebook5velox4core7ExecCtxD2Ev(ptr noundef nonnull align 8 dereferenceable(80) %.pr) #31
  call void @_ZdlPv(ptr noundef nonnull %.pr) #32
  br label %_ZNSt10unique_ptrIN8facebook5velox4core7ExecCtxESt14default_deleteIS3_EED2Ev.exit

_ZNSt10unique_ptrIN8facebook5velox4core7ExecCtxESt14default_deleteIS3_EED2Ev.exit: ; preds = %if.then, %_ZNSt10unique_ptrIN8facebook5velox4core7ExecCtxESt14default_deleteIS3_EEaSEOS6_.exit, %_ZNKSt14default_deleteIN8facebook5velox4core7ExecCtxEEclEPS3_.exit.i
  %.pre = load ptr, ptr %execCtx_, align 8
  br label %if.end

if.end:                                           ; preds = %_ZNSt10unique_ptrIN8facebook5velox4core7ExecCtxESt14default_deleteIS3_EED2Ev.exit, %entry
  %3 = phi ptr [ %.pre, %_ZNSt10unique_ptrIN8facebook5velox4core7ExecCtxESt14default_deleteIS3_EED2Ev.exit ], [ %0, %entry ]
  ret ptr %3
}